target datalayout = "e-m:e-p270:32:32-p271:32:32-p272:64:64-i64:64-i128:128-f80:128-n8:16:32:64-S128"
target triple = "x86_64-pc-linux-gnu"

%"class.std::__shared_count" = type { ptr }
%"class.std::shared_ptr.111" = type { %"class.std::__shared_ptr.112" }
%"class.std::__shared_ptr.112" = type { ptr, %"class.std::__shared_count" }
%"class.std::_Sp_counted_base" = type { ptr, i32, i32 }
%"class.std::_Sp_counted_ptr.191" = type { %"class.std::_Sp_counted_base", ptr }

@_ZN32pxrInternal_v0_24__pxrReserved__27PcpErrorInvalidSublayerPathC1Ev = unnamed_addr alias void (ptr), ptr @_ZN32pxrInternal_v0_24__pxrReserved__27PcpErrorInvalidSublayerPathC2Ev

; Function Attrs: mustprogress nounwind uwtable
define linkonce_odr void @_ZNSt16_Sp_counted_baseILN9__gnu_cxx12_Lock_policyE2EEC2Ev(ptr noundef nonnull align 8 dereferenceable(16) %0) unnamed_addr #2 comdat align 2 {
  %2 = alloca ptr, align 8
  store ptr %0, ptr %2, align 8
  %3 = load ptr, ptr %2, align 8
  store ptr getelementptr inbounds inrange(-16, 40) ({ [7 x ptr] }, ptr @_ZTVSt16_Sp_counted_baseILN9__gnu_cxx12_Lock_policyE2EE, i32 0, i32 0, i32 2), ptr %3, align 8
  %4 = getelementptr inbounds nuw %"class.std::_Sp_counted_base", ptr %3, i32 0, i32 1
  store i32 1, ptr %4, align 8
  %5 = getelementptr inbounds nuw %"class.std::_Sp_counted_base", ptr %3, i32 0, i32 2
  store i32 1, ptr %5, align 4
  ret void
}

; Function Attrs: mustprogress nounwind uwtable
define linkonce_odr void @_ZNSt15_Sp_counted_ptrIPN32pxrInternal_v0_24__pxrReserved__27PcpErrorInvalidSublayerPathELN9__gnu_cxx12_Lock_policyE2EEC2ES2_(ptr noundef nonnull align 8 dereferenceable(24) %0, ptr noundef %1) unnamed_addr #2 comdat align 2 {
  %3 = alloca ptr, align 8
  %4 = alloca ptr, align 8
  store ptr %0, ptr %3, align 8
  store ptr %1, ptr %4, align 8
  %5 = load ptr, ptr %3, align 8
  call void @_ZNSt16_Sp_counted_baseILN9__gnu_cxx12_Lock_policyE2EEC2Ev(ptr noundef nonnull align 8 dereferenceable(16) %5) #8
  store ptr getelementptr inbounds inrange(-16, 40) ({ [7 x ptr] }, ptr @_ZTVSt15_Sp_counted_ptrIPN32pxrInternal_v0_24__pxrReserved__27PcpErrorInvalidSublayerPathELN9__gnu_cxx12_Lock_policyE2EE, i32 0, i32 0, i32 2), ptr %5, align 8
  %6 = getelementptr inbounds nuw %"class.std::_Sp_counted_ptr.191", ptr %5, i32 0, i32 1
  %7 = load ptr, ptr %4, align 8
  store ptr %7, ptr %6, align 8
  ret void
}

; Function Attrs: mustprogress uwtable
define linkonce_odr void @_ZNSt14__shared_countILN9__gnu_cxx12_Lock_policyE2EEC2IPN32pxrInternal_v0_24__pxrReserved__27PcpErrorInvalidSublayerPathEEET_(ptr noundef nonnull align 8 dereferenceable(8) %0, ptr noundef %1) unnamed_addr #0 comdat align 2 personality ptr @__gxx_personality_v0 {
  %3 = alloca ptr, align 8
  %4 = alloca ptr, align 8
  %5 = alloca ptr, align 8
  %6 = alloca i32, align 4
  store ptr %0, ptr %3, align 8
  store ptr %1, ptr %4, align 8
  %7 = load ptr, ptr %3, align 8
  %8 = getelementptr inbounds nuw %"class.std::__shared_count", ptr %7, i32 0, i32 0
  store ptr null, ptr %8, align 8
  %9 = invoke noalias noundef nonnull ptr @_Znwm(i64 noundef 24) #13
          to label %10 unwind label %13

10:                                               ; preds = %2
  %11 = load ptr, ptr %4, align 8
  call void @_ZNSt15_Sp_counted_ptrIPN32pxrInternal_v0_24__pxrReserved__27PcpErrorInvalidSublayerPathELN9__gnu_cxx12_Lock_policyE2EEC2ES2_(ptr noundef nonnull align 8 dereferenceable(24) %9, ptr noundef %11) #8
  %12 = getelementptr inbounds nuw %"class.std::__shared_count", ptr %7, i32 0, i32 0
  store ptr %9, ptr %12, align 8
  br label %32

13:                                               ; preds = %2
  %14 = landingpad { ptr, i32 }
          catch ptr null
  %15 = extractvalue { ptr, i32 } %14, 0
  store ptr %15, ptr %5, align 8
  %16 = extractvalue { ptr, i32 } %14, 1
  store i32 %16, ptr %6, align 4
  br label %17

17:                                               ; preds = %13
  %18 = load ptr, ptr %5, align 8
  %19 = call ptr @__cxa_begin_catch(ptr %18) #8
  %20 = load ptr, ptr %4, align 8
  %21 = icmp eq ptr %20, null
  br i1 %21, label %26, label %22

22:                                               ; preds = %17
  %23 = load ptr, ptr %20, align 8
  %24 = getelementptr inbounds ptr, ptr %23, i64 1
  %25 = load ptr, ptr %24, align 8
  call void %25(ptr noundef nonnull align 8 dereferenceable(184) %20) #8
  br label %26

26:                                               ; preds = %22, %17
  invoke void @__cxa_rethrow() #15
          to label %41 unwind label %27

27:                                               ; preds = %26
  %28 = landingpad { ptr, i32 }
          cleanup
  %29 = extractvalue { ptr, i32 } %28, 0
  store ptr %29, ptr %5, align 8
  %30 = extractvalue { ptr, i32 } %28, 1
  store i32 %30, ptr %6, align 4
  invoke void @__cxa_end_catch()
          to label %31 unwind label %38

31:                                               ; preds = %27
  br label %33

32:                                               ; preds = %10
  ret void

33:                                               ; preds = %31
  %34 = load ptr, ptr %5, align 8
  %35 = load i32, ptr %6, align 4
  %36 = insertvalue { ptr, i32 } poison, ptr %34, 0
  %37 = insertvalue { ptr, i32 } %36, i32 %35, 1
  resume { ptr, i32 } %37

38:                                               ; preds = %27
  %39 = landingpad { ptr, i32 }
          catch ptr null
  %40 = extractvalue { ptr, i32 } %39, 0
  call void @__clang_call_terminate(ptr %40) #12
  unreachable

41:                                               ; preds = %26
  unreachable
}

; Function Attrs: mustprogress nounwind uwtable
define linkonce_odr void @_ZNSt12__shared_ptrIN32pxrInternal_v0_24__pxrReserved__27PcpErrorInvalidSublayerPathELN9__gnu_cxx12_Lock_policyE2EE31_M_enable_shared_from_this_withIS1_S1_EENSt9enable_ifIXntsr15__has_esft_baseIT0_EE5valueEvE4typeEPT_(ptr noundef nonnull align 8 dereferenceable(16) %0, ptr noundef %1) #2 comdat align 2 {
  %3 = alloca ptr, align 8
  %4 = alloca ptr, align 8
  store ptr %0, ptr %3, align 8
  store ptr %1, ptr %4, align 8
  ret void
}

; Function Attrs: mustprogress uwtable
define linkonce_odr void @_ZNSt14__shared_countILN9__gnu_cxx12_Lock_policyE2EEC2IPN32pxrInternal_v0_24__pxrReserved__27PcpErrorInvalidSublayerPathEEET_St17integral_constantIbLb0EE(ptr noundef nonnull align 8 dereferenceable(8) %0, ptr noundef %1) unnamed_addr #0 comdat align 2 {
  %3 = alloca ptr, align 8
  %4 = alloca ptr, align 8
  store ptr %0, ptr %3, align 8
  store ptr %1, ptr %4, align 8
  %5 = load ptr, ptr %3, align 8
  %6 = load ptr, ptr %4, align 8
  call void @_ZNSt14__shared_countILN9__gnu_cxx12_Lock_policyE2EEC2IPN32pxrInternal_v0_24__pxrReserved__27PcpErrorInvalidSublayerPathEEET_(ptr noundef nonnull align 8 dereferenceable(8) %5, ptr noundef %6)
  ret void
}

; Function Attrs: mustprogress uwtable
define linkonce_odr void @_ZNSt12__shared_ptrIN32pxrInternal_v0_24__pxrReserved__27PcpErrorInvalidSublayerPathELN9__gnu_cxx12_Lock_policyE2EEC2IS1_vEEPT_(ptr noundef nonnull align 8 dereferenceable(16) %0, ptr noundef %1) unnamed_addr #0 comdat align 2 {
  %3 = alloca ptr, align 8
  %4 = alloca ptr, align 8
  store ptr %0, ptr %3, align 8
  store ptr %1, ptr %4, align 8
  %5 = load ptr, ptr %3, align 8
  %6 = getelementptr inbounds nuw %"class.std::__shared_ptr.112", ptr %5, i32 0, i32 0
  %7 = load ptr, ptr %4, align 8
  store ptr %7, ptr %6, align 8
  %8 = getelementptr inbounds nuw %"class.std::__shared_ptr.112", ptr %5, i32 0, i32 1
  %9 = load ptr, ptr %4, align 8
  call void @_ZNSt14__shared_countILN9__gnu_cxx12_Lock_policyE2EEC2IPN32pxrInternal_v0_24__pxrReserved__27PcpErrorInvalidSublayerPathEEET_St17integral_constantIbLb0EE(ptr noundef nonnull align 8 dereferenceable(8) %8, ptr noundef %9)
  %10 = load ptr, ptr %4, align 8
  call void @_ZNSt12__shared_ptrIN32pxrInternal_v0_24__pxrReserved__27PcpErrorInvalidSublayerPathELN9__gnu_cxx12_Lock_policyE2EE31_M_enable_shared_from_this_withIS1_S1_EENSt9enable_ifIXntsr15__has_esft_baseIT0_EE5valueEvE4typeEPT_(ptr noundef nonnull align 8 dereferenceable(16) %5, ptr noundef %10) #8
  ret void
}

; Function Attrs: mustprogress uwtable
define linkonce_odr void @_ZNSt10shared_ptrIN32pxrInternal_v0_24__pxrReserved__27PcpErrorInvalidSublayerPathEEC2IS1_vEEPT_(ptr noundef nonnull align 8 dereferenceable(16) %0, ptr noundef %1) unnamed_addr #0 comdat align 2 {
  %3 = alloca ptr, align 8
  %4 = alloca ptr, align 8
  store ptr %0, ptr %3, align 8
  store ptr %1, ptr %4, align 8
  %5 = load ptr, ptr %3, align 8
  %6 = load ptr, ptr %4, align 8
  call void @_ZNSt12__shared_ptrIN32pxrInternal_v0_24__pxrReserved__27PcpErrorInvalidSublayerPathELN9__gnu_cxx12_Lock_policyE2EEC2IS1_vEEPT_(ptr noundef nonnull align 8 dereferenceable(16) %5, ptr noundef %6)
  ret void
}

; Function Attrs: mustprogress uwtable
define void @_ZN32pxrInternal_v0_24__pxrReserved__27PcpErrorInvalidSublayerPath3NewEv(ptr dead_on_unwind noalias writable sret(%"class.std::shared_ptr.111") align 8 %0) #0 align 2 personality ptr @__gxx_personality_v0 {
  %2 = alloca ptr, align 8
  %3 = alloca ptr, align 8
  %4 = alloca i32, align 4
  store ptr %0, ptr %2, align 8
  %5 = call noalias noundef nonnull ptr @_Znwm(i64 noundef 184) #13
  invoke void @_ZN32pxrInternal_v0_24__pxrReserved__27PcpErrorInvalidSublayerPathC1Ev(ptr noundef nonnull align 8 dereferenceable(184) %5)
          to label %6 unwind label %7

6:                                                ; preds = %1
  call void @_ZNSt10shared_ptrIN32pxrInternal_v0_24__pxrReserved__27PcpErrorInvalidSublayerPathEEC2IS1_vEEPT_(ptr noundef nonnull align 8 dereferenceable(16) %0, ptr noundef %5)
  ret void

7:                                                ; preds = %1
  %8 = landingpad { ptr, i32 }
          cleanup
  %9 = extractvalue { ptr, i32 } %8, 0
  store ptr %9, ptr %3, align 8
  %10 = extractvalue { ptr, i32 } %8, 1
  store i32 %10, ptr %4, align 4
  call void @_ZdlPvm(ptr noundef %5, i64 noundef 184) #14
  br label %11

11:                                               ; preds = %7
  %12 = load ptr, ptr %3, align 8
  %13 = load i32, ptr %4, align 4
  %14 = insertvalue { ptr, i32 } poison, ptr %12, 0
  %15 = insertvalue { ptr, i32 } %14, i32 %13, 1
  resume { ptr, i32 } %15
}